target datalayout = "e-m:e-p270:32:32-p271:32:32-p272:64:64-i64:64-i128:128-f80:128-n8:16:32:64-S128"
target triple = "x86_64-pc-linux-gnu"

%struct.CVodeMemRec = type { double, ptr, ptr, i32, i32, i32, double, double, ptr, i32, ptr, ptr, i32, ptr, i32, i32, double, double, ptr, i32, i32, i32, ptr, ptr, ptr, i32, i32, ptr, ptr, ptr, i32, double, i32, i32, double, ptr, ptr, i32, ptr, ptr, i32, i32, i32, double, ptr, ptr, [13 x ptr], ptr, ptr, ptr, ptr, ptr, [13 x ptr], ptr, ptr, ptr, ptr, [13 x ptr], ptr, ptr, ptr, ptr, ptr, i32, [13 x ptr], ptr, ptr, ptr, ptr, ptr, i32, double, i32, i32, i32, i32, i32, double, double, double, double, double, double, double, double, [14 x double], [6 x double], [13 x double], double, double, double, double, double, double, double, double, double, double, double, i32, ptr, i32, i64, i32, i32, i32, i32, i32, double, double, double, i64, i64, i64, i64, i64, i64, i64, i64, i64, ptr, i64, i64, ptr, i64, i64, i64, i64, i64, i64, i32, i64, i64, i64, i64, i64, i64, double, double, double, ptr, ptr, ptr, ptr, ptr, i32, i32, i64, double, double, double, i32, double, i32, i32, i32, i32, i32, i32, i32, i32, i32, i32, i32, i32, i32, i32, i32, i32, ptr, ptr, ptr, i32, [6 x [4 x double]], i32, i64, ptr, i32, ptr, ptr, double, double, double, ptr, ptr, ptr, double, double, i32, i32, i64, ptr, i32, i32, ptr, i32 }
%struct.CVBandPrecDataRec = type { i64, i64, i64, ptr, ptr, ptr, i64, ptr }
%struct.CVSpilsMemRec = type { i32, i32, i32, double, double, double, double, i32, i64, i64, i64, i64, i64, i64, i64, ptr, ptr, ptr, ptr, ptr, ptr, ptr, ptr, ptr, i32, ptr, ptr, i64 }

; Function Attrs: nounwind uwtable
define internal void @cvBandPrecFree(ptr noundef %0) #0 {
  %2 = alloca ptr, align 8
  %3 = alloca ptr, align 8
  %4 = alloca ptr, align 8
  %5 = alloca i32, align 4
  store ptr %0, ptr %2, align 8, !tbaa !9
  call void @llvm.lifetime.start.p0(i64 8, ptr %3) #5
  call void @llvm.lifetime.start.p0(i64 8, ptr %4) #5
  %6 = load ptr, ptr %2, align 8, !tbaa !9
  %7 = getelementptr inbounds nuw %struct.CVodeMemRec, ptr %6, i32 0, i32 144
  %8 = load ptr, ptr %7, align 8, !tbaa !11
  %9 = icmp eq ptr %8, null
  br i1 %9, label %10, label %11

10:                                               ; preds = %1
  store i32 1, ptr %5, align 4
  br label %34

11:                                               ; preds = %1
  %12 = load ptr, ptr %2, align 8, !tbaa !9
  %13 = getelementptr inbounds nuw %struct.CVodeMemRec, ptr %12, i32 0, i32 144
  %14 = load ptr, ptr %13, align 8, !tbaa !11
  store ptr %14, ptr %3, align 8, !tbaa !22
  %15 = load ptr, ptr %3, align 8, !tbaa !22
  %16 = getelementptr inbounds nuw %struct.CVSpilsMemRec, ptr %15, i32 0, i32 23
  %17 = load ptr, ptr %16, align 8, !tbaa !42
  %18 = icmp eq ptr %17, null
  br i1 %18, label %19, label %20

19:                                               ; preds = %11
  store i32 1, ptr %5, align 4
  br label %34

20:                                               ; preds = %11
  %21 = load ptr, ptr %3, align 8, !tbaa !22
  %22 = getelementptr inbounds nuw %struct.CVSpilsMemRec, ptr %21, i32 0, i32 23
  %23 = load ptr, ptr %22, align 8, !tbaa !42
  store ptr %23, ptr %4, align 8, !tbaa !30
  %24 = load ptr, ptr %4, align 8, !tbaa !30
  %25 = getelementptr inbounds nuw %struct.CVBandPrecDataRec, ptr %24, i32 0, i32 3
  %26 = load ptr, ptr %25, align 8, !tbaa !39
  call void @DestroyMat(ptr noundef %26)
  %27 = load ptr, ptr %4, align 8, !tbaa !30
  %28 = getelementptr inbounds nuw %struct.CVBandPrecDataRec, ptr %27, i32 0, i32 4
  %29 = load ptr, ptr %28, align 8, !tbaa !40
  call void @DestroyMat(ptr noundef %29)
  %30 = load ptr, ptr %4, align 8, !tbaa !30
  %31 = getelementptr inbounds nuw %struct.CVBandPrecDataRec, ptr %30, i32 0, i32 5
  %32 = load ptr, ptr %31, align 8, !tbaa !41
  call void @DestroyArray(ptr noundef %32)
  %33 = load ptr, ptr %4, align 8, !tbaa !30
  call void @free(ptr noundef %33) #5
  store ptr null, ptr %4, align 8, !tbaa !30
  store i32 0, ptr %5, align 4
  br label %34

34:                                               ; preds = %20, %19, %10
  call void @llvm.lifetime.end.p0(i64 8, ptr %4) #5
  call void @llvm.lifetime.end.p0(i64 8, ptr %3) #5
  %35 = load i32, ptr %5, align 4
  switch i32 %35, label %37 [
    i32 0, label %36
    i32 1, label %36
  ]

36:                                               ; preds = %34, %34
  ret void

37:                                               ; preds = %34
  unreachable
}